target datalayout = "e-m:e-p270:32:32-p271:32:32-p272:64:64-i64:64-i128:128-f80:128-n8:16:32:64-S128"
target triple = "x86_64-pc-linux-gnu"

@b1c4 = internal constant [4 x [2 x i16]] [[2 x i16] [i16 -14215, i16 8483], [2 x i16] [i16 -14213, i16 8484], [2 x i16] [i16 -14211, i16 8490], [2 x i16] [i16 -14174, i16 8530]], align 16
@b2c3 = internal constant [7 x [2 x i16]] [[2 x i16] [i16 -1578, i16 17207], [2 x i16] [i16 -1577, i16 20304], [2 x i16] [i16 -1576, i16 17486], [2 x i16] [i16 -1575, i16 20554], [2 x i16] [i16 -1574, i16 11357], [2 x i16] [i16 -1573, i16 15742], [2 x i16] [i16 -1572, i16 19292]], align 16

; Function Attrs: nounwind uwtable
define hidden zeroext i16 @CNStoBIG5(i16 noundef zeroext %0, i8 noundef zeroext %1) #0 {
  %3 = alloca i16, align 2
  %4 = alloca i16, align 2
  %5 = alloca i8, align 1
  %6 = alloca i32, align 4
  %7 = alloca i32, align 4
  %8 = alloca i32, align 4
  store i16 %0, ptr %4, align 2
  store i8 %1, ptr %5, align 1
  call void @llvm.lifetime.start.p0(i64 4, ptr %6) #2
  call void @llvm.lifetime.start.p0(i64 4, ptr %7) #2
  store i32 0, ptr %7, align 4
  %9 = load i16, ptr %4, align 2
  %10 = zext i16 %9 to i32
  %11 = and i32 %10, 32639
  %12 = trunc i32 %11 to i16
  store i16 %12, ptr %4, align 2
  %13 = load i8, ptr %5, align 1
  %14 = zext i8 %13 to i32
  switch i32 %14, label %75 [
    i32 149, label %15
    i32 150, label %19
    i32 246, label %23
    i32 247, label %49
  ]

15:                                               ; preds = %2
  %16 = load i16, ptr %4, align 2
  %17 = call zeroext i16 @BinarySearchRange(ptr noundef @cnsPlane1ToBig5Level1, i32 noundef 24, i16 noundef zeroext %16)
  %18 = zext i16 %17 to i32
  store i32 %18, ptr %7, align 4
  br label %76

19:                                               ; preds = %2
  %20 = load i16, ptr %4, align 2
  %21 = call zeroext i16 @BinarySearchRange(ptr noundef @cnsPlane2ToBig5Level2, i32 noundef 47, i16 noundef zeroext %20)
  %22 = zext i16 %21 to i32
  store i32 %22, ptr %7, align 4
  br label %76

23:                                               ; preds = %2
  store i32 0, ptr %6, align 4
  br label %24

24:                                               ; preds = %45, %23
  %25 = load i32, ptr %6, align 4
  %26 = sext i32 %25 to i64
  %27 = icmp ult i64 %26, 7
  br i1 %27, label %28, label %48

28:                                               ; preds = %24
  %29 = load i32, ptr %6, align 4
  %30 = sext i32 %29 to i64
  %31 = getelementptr inbounds [7 x [2 x i16]], ptr @b2c3, i64 0, i64 %30
  %32 = getelementptr inbounds [2 x i16], ptr %31, i64 0, i64 1
  %33 = load i16, ptr %32, align 2
  %34 = zext i16 %33 to i32
  %35 = load i16, ptr %4, align 2
  %36 = zext i16 %35 to i32
  %37 = icmp eq i32 %34, %36
  br i1 %37, label %38, label %44

38:                                               ; preds = %28
  %39 = load i32, ptr %6, align 4
  %40 = sext i32 %39 to i64
  %41 = getelementptr inbounds [7 x [2 x i16]], ptr @b2c3, i64 0, i64 %40
  %42 = getelementptr inbounds [2 x i16], ptr %41, i64 0, i64 0
  %43 = load i16, ptr %42, align 4
  store i16 %43, ptr %3, align 2
  store i32 1, ptr %8, align 4
  br label %79

44:                                               ; preds = %28
  br label %45

45:                                               ; preds = %44
  %46 = load i32, ptr %6, align 4
  %47 = add i32 %46, 1
  store i32 %47, ptr %6, align 4
  br label %24, !llvm.loop !7

48:                                               ; preds = %24
  br label %76

49:                                               ; preds = %2
  store i32 0, ptr %6, align 4
  br label %50

50:                                               ; preds = %71, %49
  %51 = load i32, ptr %6, align 4
  %52 = sext i32 %51 to i64
  %53 = icmp ult i64 %52, 4
  br i1 %53, label %54, label %74

54:                                               ; preds = %50
  %55 = load i32, ptr %6, align 4
  %56 = sext i32 %55 to i64
  %57 = getelementptr inbounds [4 x [2 x i16]], ptr @b1c4, i64 0, i64 %56
  %58 = getelementptr inbounds [2 x i16], ptr %57, i64 0, i64 1
  %59 = load i16, ptr %58, align 2
  %60 = zext i16 %59 to i32
  %61 = load i16, ptr %4, align 2
  %62 = zext i16 %61 to i32
  %63 = icmp eq i32 %60, %62
  br i1 %63, label %64, label %70

64:                                               ; preds = %54
  %65 = load i32, ptr %6, align 4
  %66 = sext i32 %65 to i64
  %67 = getelementptr inbounds [4 x [2 x i16]], ptr @b1c4, i64 0, i64 %66
  %68 = getelementptr inbounds [2 x i16], ptr %67, i64 0, i64 0
  %69 = load i16, ptr %68, align 4
  store i16 %69, ptr %3, align 2
  store i32 1, ptr %8, align 4
  br label %79

70:                                               ; preds = %54
  br label %71

71:                                               ; preds = %70
  %72 = load i32, ptr %6, align 4
  %73 = add i32 %72, 1
  store i32 %73, ptr %6, align 4
  br label %50, !llvm.loop !8

74:                                               ; preds = %50
  br label %75

75:                                               ; preds = %2, %74
  br label %76

76:                                               ; preds = %75, %48, %19, %15
  %77 = load i32, ptr %7, align 4
  %78 = trunc i32 %77 to i16
  store i16 %78, ptr %3, align 2
  store i32 1, ptr %8, align 4
  br label %79

79:                                               ; preds = %76, %64, %38
  call void @llvm.lifetime.end.p0(i64 4, ptr %7) #2
  call void @llvm.lifetime.end.p0(i64 4, ptr %6) #2
  %80 = load i16, ptr %3, align 2
  ret i16 %80
}