; Function Attrs: nofree norecurse nosync nounwind memory(none) uwtable
define hidden zeroext i16 @CNStoBIG5(i16 noundef zeroext %0, i8 noundef zeroext %1) local_unnamed_addr #2 {
  %3 = and i16 %0, 32639
  switch i8 %1, label %.loopexit [
    i8 -107, label %4
    i8 -106, label %6
    i8 -10, label %.preheader
    i8 -9, label %.preheader20
  ]

4:                                                ; preds = %2
  %5 = tail call fastcc zeroext i16 @BinarySearchRange(ptr noundef nonnull @cnsPlane1ToBig5Level1, i32 noundef 24, i16 noundef zeroext %3)
  br label %.loopexit

6:                                                ; preds = %2
  %7 = tail call fastcc zeroext i16 @BinarySearchRange(ptr noundef nonnull @cnsPlane2ToBig5Level2, i32 noundef 47, i16 noundef zeroext %3)
  br label %.loopexit

8:                                                ; preds = %.preheader
  %indvars.iv.next31 = add nuw nsw i64 %indvars.iv30, 1
  %exitcond33.not = icmp eq i64 %indvars.iv.next31, 7
  br i1 %exitcond33.not, label %.loopexit, label %.preheader, !llvm.loop !7

.preheader:                                       ; preds = %2, %8
  %indvars.iv30 = phi i64 [ %indvars.iv.next31, %8 ], [ 0, %2 ]
  %9 = getelementptr inbounds nuw [7 x [2 x i16]], ptr @b2c3, i64 0, i64 %indvars.iv30
  %10 = getelementptr inbounds nuw i8, ptr %9, i64 2
  %11 = load i16, ptr %10, align 2
  %12 = icmp eq i16 %11, %3
  br i1 %12, label %13, label %8

13:                                               ; preds = %.preheader
  %14 = load i16, ptr %9, align 4
  br label %.loopexit

15:                                               ; preds = %.preheader20
  %indvars.iv.next = add nuw nsw i64 %indvars.iv, 1
  %exitcond.not = icmp eq i64 %indvars.iv.next, 4
  br i1 %exitcond.not, label %.loopexit, label %.preheader20, !llvm.loop !8

.preheader20:                                     ; preds = %2, %15
  %indvars.iv = phi i64 [ %indvars.iv.next, %15 ], [ 0, %2 ]
  %16 = getelementptr inbounds nuw [4 x [2 x i16]], ptr @b1c4, i64 0, i64 %indvars.iv
  %17 = getelementptr inbounds nuw i8, ptr %16, i64 2
  %18 = load i16, ptr %17, align 2
  %19 = icmp eq i16 %18, %3
  br i1 %19, label %20, label %15

20:                                               ; preds = %.preheader20
  %21 = load i16, ptr %16, align 4
  br label %.loopexit

.loopexit:                                        ; preds = %15, %8, %4, %6, %2, %20, %13
  %.017 = phi i16 [ %21, %20 ], [ %14, %13 ], [ 0, %2 ], [ %7, %6 ], [ %5, %4 ], [ 0, %8 ], [ 0, %15 ]
  ret i16 %.017
}